; Function Attrs: mustprogress uwtable
define dso_local void @_ZN4absl13time_internal4cctz12TimeZoneLibC4MakeERKNSt7__cxx1112basic_stringIcSt11char_traitsIcESaIcEEE(ptr noalias nocapture writeonly sret(%"class.std::unique_ptr") align 8 %agg.result, ptr noundef nonnull align 8 dereferenceable(32) %name) local_unnamed_addr #0 align 2 personality ptr @__gxx_personality_v0 {
invoke.cont:
  %call = tail call noalias noundef nonnull dereferenceable(16) ptr @_Znwm(i64 noundef 16) #11
  store ptr getelementptr inbounds ({ [10 x ptr] }, ptr @_ZTVN4absl13time_internal4cctz12TimeZoneLibCE, i64 0, i32 0, i64 2), ptr %call, align 8
  %local_.i = getelementptr inbounds i8, ptr %call, i64 8
  %call.i.i = tail call noundef i32 @_ZNKSt7__cxx1112basic_stringIcSt11char_traitsIcESaIcEE7compareEPKc(ptr noundef nonnull align 8 dereferenceable(32) %name, ptr noundef nonnull @.str.2) #12
  %cmp.i.i = icmp eq i32 %call.i.i, 0
  %frombool.i = zext i1 %cmp.i.i to i8
  store i8 %frombool.i, ptr %local_.i, align 8
  store ptr %call, ptr %agg.result, align 8
  ret void
}